; Function Attrs: nounwind sspstrong uwtable
define hidden noundef ptr @rb_st_replace(ptr noundef returned captures(ret: address, provenance) initializes((0, 56)) %0, ptr noundef readonly captures(none) %1) local_unnamed_addr #0 {
  tail call void @llvm.memcpy.p0.p0.i64(ptr noundef nonnull align 8 dereferenceable(56) %0, ptr noundef nonnull align 8 dereferenceable(56) %1, i64 56, i1 false), !tbaa.struct !52
  %3 = getelementptr inbounds nuw i8, ptr %1, i64 24
  %4 = load ptr, ptr %3, align 8, !tbaa !25
  %5 = icmp eq ptr %4, null
  br i1 %5, label %12, label %6

6:                                                ; preds = %2
  %.val16 = load i8, ptr %1, align 8, !tbaa !18
  %7 = zext i8 %.val16 to i64
  %8 = getelementptr [63 x %struct.st_features], ptr @features, i64 0, i64 %7, i32 3
  %9 = load i64, ptr %8, align 8, !tbaa !24
  %10 = shl i64 %9, 3
  %11 = tail call noalias nonnull ptr @ruby_xmalloc(i64 noundef %10) #24
  br label %12

12:                                               ; preds = %2, %6
  %.sink = phi ptr [ %11, %6 ], [ null, %2 ]
  %13 = getelementptr inbounds nuw i8, ptr %0, i64 24
  store ptr %.sink, ptr %13, align 8, !tbaa !25
  %.val18 = load i8, ptr %1, align 8, !tbaa !18
  %14 = zext nneg i8 %.val18 to i64
  %15 = shl i64 24, %14
  %16 = tail call noalias nonnull ptr @ruby_xmalloc(i64 noundef %15) #24
  %17 = getelementptr inbounds nuw i8, ptr %0, i64 48
  store ptr %16, ptr %17, align 8, !tbaa !26
  %.val17 = load i8, ptr %1, align 8, !tbaa !18
  %18 = zext i8 %.val17 to i64
  %19 = shl nuw i64 1, %18
  %20 = tail call { i64, i1 } @llvm.umul.with.overflow.i64(i64 range(i64 1, 25) %19, i64 24)
  %21 = extractvalue { i64, i1 } %20, 1
  br i1 %21, label %22, label %rbimpl_size_mul_or_raise.exit, !prof !50

22:                                               ; preds = %12
  tail call void @ruby_malloc_size_overflow(i64 noundef 24, i64 noundef %19) #23
  unreachable

rbimpl_size_mul_or_raise.exit:                    ; preds = %12
  %23 = getelementptr inbounds nuw i8, ptr %1, i64 48
  %24 = load ptr, ptr %23, align 8, !tbaa !26
  %25 = extractvalue { i64, i1 } %20, 0
  tail call void @llvm.memcpy.p0.p0.i64(ptr noundef nonnull align 1 %16, ptr noundef nonnull readonly align 1 %24, i64 noundef range(i64 1, 0) %25, i1 noundef false) #25
  %26 = load ptr, ptr %3, align 8, !tbaa !25
  %.not = icmp eq ptr %26, null
  br i1 %.not, label %ruby_nonempty_memcpy.exit22, label %rbimpl_size_mul_or_raise.exit19

rbimpl_size_mul_or_raise.exit19:                  ; preds = %rbimpl_size_mul_or_raise.exit
  %27 = getelementptr [63 x %struct.st_features], ptr @features, i64 0, i64 %18, i32 3
  %28 = load i64, ptr %27, align 8, !tbaa !24
  %29 = shl i64 %28, 3
  %.not.i20 = icmp eq i64 %29, 0
  br i1 %.not.i20, label %ruby_nonempty_memcpy.exit22, label %30

30:                                               ; preds = %rbimpl_size_mul_or_raise.exit19
  %31 = load ptr, ptr %13, align 8, !tbaa !25
  tail call void @llvm.memcpy.p0.p0.i64(ptr noundef nonnull align 1 %31, ptr noundef nonnull readonly align 1 %26, i64 noundef range(i64 1, 0) %29, i1 noundef false) #25
  br label %ruby_nonempty_memcpy.exit22

ruby_nonempty_memcpy.exit22:                      ; preds = %30, %rbimpl_size_mul_or_raise.exit19, %rbimpl_size_mul_or_raise.exit
  ret ptr %0
}